; Function Attrs: mustprogress uwtable
define { i64, i64 } @_ZNK10open_spiel18twenty_forty_eight21TwentyFortyEightState20FindFarthestPositionEiii(ptr noundef nonnull readonly align 8 captures(none) dereferenceable(120) %0, i32 noundef %1, i32 noundef %2, i32 noundef %3) local_unnamed_addr #3 align 2 personality ptr @__gxx_personality_v0 {
  %5 = alloca %"class.std::__cxx11::basic_string", align 8
  %6 = alloca %"class.std::allocator", align 1
  call void @llvm.lifetime.start.p0(i64 32, ptr nonnull %5)
  call void @llvm.lifetime.start.p0(i64 1, ptr nonnull %6)
  %7 = icmp ult i32 %3, 4
  br i1 %7, label %switch.lookup, label %8

8:                                                ; preds = %4
  call void @_ZNSaIcEC1Ev(ptr noundef nonnull align 1 dereferenceable(1) %6) #28
  invoke void @_ZNSt7__cxx1112basic_stringIcSt11char_traitsIcESaIcEEC2IS3_EEPKcRKS3_(ptr noundef nonnull align 8 dereferenceable(32) %5, ptr noundef nonnull @.str.24, ptr noundef nonnull align 1 dereferenceable(1) %6)
          to label %9 unwind label %11

9:                                                ; preds = %8
  invoke void @_ZN10open_spiel15SpielFatalErrorERKNSt7__cxx1112basic_stringIcSt11char_traitsIcESaIcEEE(ptr noundef nonnull align 8 dereferenceable(32) %5) #27
          to label %10 unwind label %13

10:                                               ; preds = %9
  unreachable

11:                                               ; preds = %8
  %12 = landingpad { ptr, i32 }
          cleanup
  br label %15

13:                                               ; preds = %9
  %14 = landingpad { ptr, i32 }
          cleanup
  call void @_ZNSt7__cxx1112basic_stringIcSt11char_traitsIcESaIcEED1Ev(ptr noundef nonnull align 8 dereferenceable(32) %5) #28
  br label %15

15:                                               ; preds = %13, %11
  %.pn.i = phi { ptr, i32 } [ %14, %13 ], [ %12, %11 ]
  call void @_ZNSaIcED1Ev(ptr noundef nonnull align 1 dereferenceable(1) %6) #28
  resume { ptr, i32 } %.pn.i

switch.lookup:                                    ; preds = %4
  %16 = zext nneg i32 %3 to i64
  %switch.gep = getelementptr inbounds nuw [4 x i64], ptr @switch.table._ZNK10open_spiel18twenty_forty_eight21TwentyFortyEightState12LegalActionsEv, i64 0, i64 %16
  %switch.load = load i64, ptr %switch.gep, align 8
  call void @llvm.lifetime.end.p0(i64 32, ptr nonnull %5)
  call void @llvm.lifetime.end.p0(i64 1, ptr nonnull %6)
  %.sroa.0.0.extract.trunc = trunc i64 %switch.load to i32
  %.sroa.2.0.extract.shift = lshr i64 %switch.load, 32
  %.sroa.2.0.extract.trunc = trunc nuw i64 %.sroa.2.0.extract.shift to i32
  %17 = getelementptr inbounds nuw i8, ptr %0, i64 80
  %18 = load ptr, ptr %17, align 8
  br label %19

19:                                               ; preds = %24, %switch.lookup
  %.013 = phi i32 [ %2, %switch.lookup ], [ %21, %24 ]
  %.0 = phi i32 [ %1, %switch.lookup ], [ %20, %24 ]
  %20 = add nsw i32 %.0, %.sroa.0.0.extract.trunc
  %21 = add nsw i32 %.013, %.sroa.2.0.extract.trunc
  %or.cond.i = icmp ult i32 %20, 4
  %22 = icmp sgt i32 %21, -1
  %or.cond3.i = and i1 %22, %or.cond.i
  %23 = icmp samesign ult i32 %21, 4
  %spec.select.i = select i1 %or.cond3.i, i1 %23, i1 false
  br i1 %spec.select.i, label %24, label %.critedge

24:                                               ; preds = %19
  %25 = shl nuw nsw i32 %20, 2
  %26 = or disjoint i32 %25, %21
  %27 = zext nneg i32 %26 to i64
  %28 = getelementptr inbounds nuw %"struct.open_spiel::twenty_forty_eight::Tile", ptr %18, i64 %27
  %.sroa.0.0.copyload.i.i = load i64, ptr %28, align 4
  %29 = and i64 %.sroa.0.0.copyload.i.i, 4294967295
  %30 = icmp eq i64 %29, 0
  br i1 %30, label %19, label %.critedge, !llvm.loop !8

.critedge:                                        ; preds = %19, %24
  %.sroa.3.0.insert.ext = zext i32 %.013 to i64
  %.sroa.3.0.insert.shift = shl nuw i64 %.sroa.3.0.insert.ext, 32
  %.sroa.014.0.insert.ext = zext i32 %.0 to i64
  %.sroa.014.0.insert.insert = or disjoint i64 %.sroa.3.0.insert.shift, %.sroa.014.0.insert.ext
  %.fca.0.insert = insertvalue { i64, i64 } poison, i64 %.sroa.014.0.insert.insert, 0
  %.sroa.4.8.insert.ext = zext i32 %21 to i64
  %.sroa.4.8.insert.shift = shl nuw i64 %.sroa.4.8.insert.ext, 32
  %.sroa.216.8.insert.ext = zext i32 %20 to i64
  %.sroa.216.8.insert.insert = or disjoint i64 %.sroa.4.8.insert.shift, %.sroa.216.8.insert.ext
  %.fca.1.insert = insertvalue { i64, i64 } %.fca.0.insert, i64 %.sroa.216.8.insert.insert, 1
  ret { i64, i64 } %.fca.1.insert
}